; Function Attrs: mustprogress uwtable
define internal noundef zeroext i1 @"_ZNSt17_Function_handlerIFbRKN4lean5levelEEZNS0_6occursES3_S3_E3$_0E9_M_invokeERKSt9_Any_dataS3_"(ptr noundef nonnull readonly align 8 captures(none) dereferenceable(16) %0, ptr noundef nonnull readonly align 8 captures(none) dereferenceable(8) %1) #0 align 2 {
  %3 = load ptr, ptr %0, align 8, !tbaa !141
  %4 = load i8, ptr %3, align 1, !tbaa !71, !range !56, !noundef !57
  %5 = trunc nuw i8 %4 to i1
  br i1 %5, label %"_ZSt10__invoke_rIbRZN4lean6occursERKNS0_5levelES3_E3$_0JS3_EENSt9enable_ifIXntsr7is_voidIT_EE5valueES7_E4typeEOT0_DpOT1_.exit", label %6

6:                                                ; preds = %2
  %7 = getelementptr inbounds nuw i8, ptr %0, i64 8
  %8 = load ptr, ptr %7, align 8, !tbaa !143
  %9 = tail call noundef zeroext i1 @_ZN4leaneqERKNS_5levelES2_(ptr noundef nonnull readonly align 8 dereferenceable(8) %1, ptr noundef nonnull align 8 dereferenceable(8) %8)
  br i1 %9, label %10, label %"_ZSt10__invoke_rIbRZN4lean6occursERKNS0_5levelES3_E3$_0JS3_EENSt9enable_ifIXntsr7is_voidIT_EE5valueES7_E4typeEOT0_DpOT1_.exit"

10:                                               ; preds = %6
  %11 = load ptr, ptr %0, align 8, !tbaa !141
  store i8 1, ptr %11, align 1, !tbaa !71
  br label %"_ZSt10__invoke_rIbRZN4lean6occursERKNS0_5levelES3_E3$_0JS3_EENSt9enable_ifIXntsr7is_voidIT_EE5valueES7_E4typeEOT0_DpOT1_.exit"

"_ZSt10__invoke_rIbRZN4lean6occursERKNS0_5levelES3_E3$_0JS3_EENSt9enable_ifIXntsr7is_voidIT_EE5valueES7_E4typeEOT0_DpOT1_.exit": ; preds = %2, %6, %10
  %.0.i.i.i = phi i1 [ false, %10 ], [ false, %2 ], [ true, %6 ]
  ret i1 %.0.i.i.i
}